target datalayout = "e-m:e-p270:32:32-p271:32:32-p272:64:64-i64:64-i128:128-f80:128-n8:16:32:64-S128"
target triple = "x86_64-pc-linux-gnu"

%"class.duckdb_re2::Regexp" = type { i8, i8, i16, i16, i16, %union.anon, ptr, %union.anon.0 }
%union.anon = type { ptr }
%union.anon.0 = type { %struct.anon.1 }
%struct.anon.1 = type { i32, ptr }
%"class.std::__cxx11::basic_string" = type { %"struct.std::__cxx11::basic_string<char>::_Alloc_hider", i64, %union.anon.4 }
%"struct.std::__cxx11::basic_string<char>::_Alloc_hider" = type { ptr }
%union.anon.4 = type { i64, [8 x i8] }
%struct.anon.2 = type { i32, ptr }

; Function Attrs: mustprogress nounwind uwtable
define linkonce_odr void @_ZNSt11char_traitsIcE6assignERcRKc(ptr noundef nonnull align 1 dereferenceable(1) %0, ptr noundef nonnull align 1 dereferenceable(1) %1) #0 comdat align 2 {
  %3 = alloca ptr, align 8
  %4 = alloca ptr, align 8
  store ptr %0, ptr %3, align 8, !tbaa !23
  store ptr %1, ptr %4, align 8, !tbaa !23
  %5 = load ptr, ptr %4, align 8, !tbaa !23
  %6 = load i8, ptr %5, align 1, !tbaa !20
  %7 = load ptr, ptr %3, align 8, !tbaa !23
  store i8 %6, ptr %7, align 1, !tbaa !20
  ret void
}

; Function Attrs: mustprogress nounwind uwtable
define available_externally noundef ptr @_ZNKSt7__cxx1112basic_stringIcSt11char_traitsIcESaIcEE7_M_dataEv(ptr noundef nonnull align 8 dereferenceable(32) %0) #0 align 2 {
  %2 = alloca ptr, align 8
  store ptr %0, ptr %2, align 8, !tbaa !46
  %3 = load ptr, ptr %2, align 8
  %4 = getelementptr inbounds nuw %"class.std::__cxx11::basic_string", ptr %3, i32 0, i32 0
  %5 = getelementptr inbounds nuw %"struct.std::__cxx11::basic_string<char>::_Alloc_hider", ptr %4, i32 0, i32 0
  %6 = load ptr, ptr %5, align 8, !tbaa !358
  ret ptr %6
}

; Function Attrs: mustprogress nounwind uwtable
define available_externally void @_ZNSt7__cxx1112basic_stringIcSt11char_traitsIcESaIcEE9_M_lengthEm(ptr noundef nonnull align 8 dereferenceable(32) %0, i64 noundef %1) #0 align 2 {
  %3 = alloca ptr, align 8
  %4 = alloca i64, align 8
  store ptr %0, ptr %3, align 8, !tbaa !46
  store i64 %1, ptr %4, align 8, !tbaa !85
  %5 = load ptr, ptr %3, align 8
  %6 = load i64, ptr %4, align 8, !tbaa !85
  %7 = getelementptr inbounds nuw %"class.std::__cxx11::basic_string", ptr %5, i32 0, i32 1
  store i64 %6, ptr %7, align 8, !tbaa !357
  ret void
}

; Function Attrs: noinline noreturn nounwind uwtable
define linkonce_odr hidden void @__clang_call_terminate(ptr noundef %0) #5 comdat {
  %2 = call ptr @__cxa_begin_catch(ptr %0) #18
  call void @_ZSt9terminatev() #20
  unreachable
}

; Function Attrs: mustprogress uwtable
define available_externally void @_ZNSt7__cxx1112basic_stringIcSt11char_traitsIcESaIcEE13_M_set_lengthEm(ptr noundef nonnull align 8 dereferenceable(32) %0, i64 noundef %1) #4 align 2 {
  %3 = alloca ptr, align 8
  %4 = alloca i64, align 8
  %5 = alloca i8, align 1
  store ptr %0, ptr %3, align 8, !tbaa !46
  store i64 %1, ptr %4, align 8, !tbaa !85
  %6 = load ptr, ptr %3, align 8
  %7 = load i64, ptr %4, align 8, !tbaa !85
  call void @_ZNSt7__cxx1112basic_stringIcSt11char_traitsIcESaIcEE9_M_lengthEm(ptr noundef nonnull align 8 dereferenceable(32) %6, i64 noundef %7)
  %8 = call noundef ptr @_ZNKSt7__cxx1112basic_stringIcSt11char_traitsIcESaIcEE7_M_dataEv(ptr noundef nonnull align 8 dereferenceable(32) %6)
  %9 = load i64, ptr %4, align 8, !tbaa !85
  %10 = getelementptr inbounds nuw i8, ptr %8, i64 %9
  call void @llvm.lifetime.start.p0(i64 1, ptr %5) #18
  store i8 0, ptr %5, align 1, !tbaa !20
  call void @_ZNSt11char_traitsIcE6assignERcRKc(ptr noundef nonnull align 1 dereferenceable(1) %10, ptr noundef nonnull align 1 dereferenceable(1) %5) #18
  call void @llvm.lifetime.end.p0(i64 1, ptr %5) #18
  ret void
}

; Function Attrs: inlinehint mustprogress nounwind uwtable
define linkonce_odr hidden noundef i32 @_ZN10duckdb_re2anENS_6Regexp10ParseFlagsES1_(i32 noundef %0, i32 noundef %1) #7 comdat {
  %3 = alloca i32, align 4
  %4 = alloca i32, align 4
  store i32 %0, ptr %3, align 4, !tbaa !10
  store i32 %1, ptr %4, align 4, !tbaa !10
  %5 = load i32, ptr %3, align 4, !tbaa !10
  %6 = load i32, ptr %4, align 4, !tbaa !10
  %7 = and i32 %5, %6
  ret i32 %7
}

; Function Attrs: mustprogress nounwind uwtable
define linkonce_odr hidden noundef i32 @_ZN10duckdb_re26Regexp11parse_flagsEv(ptr noundef nonnull align 8 dereferenceable(40) %0) #0 comdat align 2 {
  %2 = alloca ptr, align 8
  store ptr %0, ptr %2, align 8, !tbaa !3
  %3 = load ptr, ptr %2, align 8
  %4 = getelementptr inbounds nuw %"class.duckdb_re2::Regexp", ptr %3, i32 0, i32 2
  %5 = load i16, ptr %4, align 2, !tbaa !16
  %6 = zext i16 %5 to i32
  ret i32 %6
}

; Function Attrs: mustprogress nounwind uwtable
define linkonce_odr hidden noundef ptr @_ZN10duckdb_re26Regexp3subEv(ptr noundef nonnull align 8 dereferenceable(40) %0) #0 comdat align 2 {
  %2 = alloca ptr, align 8
  %3 = alloca ptr, align 8
  store ptr %0, ptr %3, align 8, !tbaa !3
  %4 = load ptr, ptr %3, align 8
  %5 = getelementptr inbounds nuw %"class.duckdb_re2::Regexp", ptr %4, i32 0, i32 4
  %6 = load i16, ptr %5, align 2, !tbaa !18
  %7 = zext i16 %6 to i32
  %8 = icmp sle i32 %7, 1
  br i1 %8, label %9, label %11

9:                                                ; preds = %1
  %10 = getelementptr inbounds nuw %"class.duckdb_re2::Regexp", ptr %4, i32 0, i32 5
  store ptr %10, ptr %2, align 8
  br label %14

11:                                               ; preds = %1
  %12 = getelementptr inbounds nuw %"class.duckdb_re2::Regexp", ptr %4, i32 0, i32 5
  %13 = load ptr, ptr %12, align 8, !tbaa !20
  store ptr %13, ptr %2, align 8
  br label %14

14:                                               ; preds = %11, %9
  %15 = load ptr, ptr %2, align 8
  ret ptr %15
}

; Function Attrs: mustprogress nounwind uwtable
define available_externally void @_ZNSt7__cxx1112basic_stringIcSt11char_traitsIcESaIcEE5clearEv(ptr noundef nonnull align 8 dereferenceable(32) %0) #0 align 2 personality ptr @__gxx_personality_v0 {
  %2 = alloca ptr, align 8
  store ptr %0, ptr %2, align 8, !tbaa !46
  %3 = load ptr, ptr %2, align 8
  invoke void @_ZNSt7__cxx1112basic_stringIcSt11char_traitsIcESaIcEE13_M_set_lengthEm(ptr noundef nonnull align 8 dereferenceable(32) %3, i64 noundef 0)
          to label %4 unwind label %5

4:                                                ; preds = %1
  ret void

5:                                                ; preds = %1
  %6 = landingpad { ptr, i32 }
          catch ptr null
  %7 = extractvalue { ptr, i32 } %6, 0
  call void @__clang_call_terminate(ptr %7) #20
  unreachable
}

; Function Attrs: mustprogress uwtable
define hidden noundef zeroext i1 @_ZN10duckdb_re26Regexp22RequiredPrefixForAccelEPNSt7__cxx1112basic_stringIcSt11char_traitsIcESaIcEEEPb(ptr noundef nonnull align 8 dereferenceable(40) %0, ptr noundef %1, ptr noundef %2) #4 align 2 {
  %4 = alloca i1, align 1
  %5 = alloca ptr, align 8
  %6 = alloca ptr, align 8
  %7 = alloca ptr, align 8
  %8 = alloca ptr, align 8
  %9 = alloca i32, align 4
  %10 = alloca i8, align 1
  %11 = alloca ptr, align 8
  %12 = alloca i32, align 4
  store ptr %0, ptr %5, align 8, !tbaa !3
  store ptr %1, ptr %6, align 8, !tbaa !46
  store ptr %2, ptr %7, align 8, !tbaa !138
  %13 = load ptr, ptr %5, align 8
  %14 = load ptr, ptr %6, align 8, !tbaa !46
  call void @_ZNSt7__cxx1112basic_stringIcSt11char_traitsIcESaIcEE5clearEv(ptr noundef nonnull align 8 dereferenceable(32) %14) #18
  %15 = load ptr, ptr %7, align 8, !tbaa !138
  store i8 0, ptr %15, align 1, !tbaa !77
  call void @llvm.lifetime.start.p0(i64 8, ptr %8) #18
  %16 = getelementptr inbounds nuw %"class.duckdb_re2::Regexp", ptr %13, i32 0, i32 0
  %17 = load i8, ptr %16, align 8, !tbaa !12
  %18 = zext i8 %17 to i32
  %19 = icmp eq i32 %18, 5
  br i1 %19, label %20, label %29

20:                                               ; preds = %3
  %21 = getelementptr inbounds nuw %"class.duckdb_re2::Regexp", ptr %13, i32 0, i32 4
  %22 = load i16, ptr %21, align 2, !tbaa !18
  %23 = zext i16 %22 to i32
  %24 = icmp sgt i32 %23, 0
  br i1 %24, label %25, label %29

25:                                               ; preds = %20
  %26 = call noundef ptr @_ZN10duckdb_re26Regexp3subEv(ptr noundef nonnull align 8 dereferenceable(40) %13)
  %27 = getelementptr inbounds ptr, ptr %26, i64 0
  %28 = load ptr, ptr %27, align 8, !tbaa !3
  br label %30

29:                                               ; preds = %20, %3
  br label %30

30:                                               ; preds = %29, %25
  %31 = phi ptr [ %28, %25 ], [ %13, %29 ]
  store ptr %31, ptr %8, align 8, !tbaa !3
  br label %32

32:                                               ; preds = %59, %30
  %33 = load ptr, ptr %8, align 8, !tbaa !3
  %34 = getelementptr inbounds nuw %"class.duckdb_re2::Regexp", ptr %33, i32 0, i32 0
  %35 = load i8, ptr %34, align 8, !tbaa !12
  %36 = zext i8 %35 to i32
  %37 = icmp eq i32 %36, 11
  br i1 %37, label %38, label %60

38:                                               ; preds = %32
  %39 = load ptr, ptr %8, align 8, !tbaa !3
  %40 = call noundef ptr @_ZN10duckdb_re26Regexp3subEv(ptr noundef nonnull align 8 dereferenceable(40) %39)
  %41 = getelementptr inbounds ptr, ptr %40, i64 0
  %42 = load ptr, ptr %41, align 8, !tbaa !3
  store ptr %42, ptr %8, align 8, !tbaa !3
  %43 = load ptr, ptr %8, align 8, !tbaa !3
  %44 = getelementptr inbounds nuw %"class.duckdb_re2::Regexp", ptr %43, i32 0, i32 0
  %45 = load i8, ptr %44, align 8, !tbaa !12
  %46 = zext i8 %45 to i32
  %47 = icmp eq i32 %46, 5
  br i1 %47, label %48, label %59

48:                                               ; preds = %38
  %49 = load ptr, ptr %8, align 8, !tbaa !3
  %50 = getelementptr inbounds nuw %"class.duckdb_re2::Regexp", ptr %49, i32 0, i32 4
  %51 = load i16, ptr %50, align 2, !tbaa !18
  %52 = zext i16 %51 to i32
  %53 = icmp sgt i32 %52, 0
  br i1 %53, label %54, label %59

54:                                               ; preds = %48
  %55 = load ptr, ptr %8, align 8, !tbaa !3
  %56 = call noundef ptr @_ZN10duckdb_re26Regexp3subEv(ptr noundef nonnull align 8 dereferenceable(40) %55)
  %57 = getelementptr inbounds ptr, ptr %56, i64 0
  %58 = load ptr, ptr %57, align 8, !tbaa !3
  store ptr %58, ptr %8, align 8, !tbaa !3
  br label %59

59:                                               ; preds = %54, %48, %38
  br label %32, !llvm.loop !142

60:                                               ; preds = %32
  %61 = load ptr, ptr %8, align 8, !tbaa !3
  %62 = getelementptr inbounds nuw %"class.duckdb_re2::Regexp", ptr %61, i32 0, i32 0
  %63 = load i8, ptr %62, align 8, !tbaa !12
  %64 = zext i8 %63 to i32
  %65 = icmp ne i32 %64, 3
  br i1 %65, label %66, label %73

66:                                               ; preds = %60
  %67 = load ptr, ptr %8, align 8, !tbaa !3
  %68 = getelementptr inbounds nuw %"class.duckdb_re2::Regexp", ptr %67, i32 0, i32 0
  %69 = load i8, ptr %68, align 8, !tbaa !12
  %70 = zext i8 %69 to i32
  %71 = icmp ne i32 %70, 4
  br i1 %71, label %72, label %73

72:                                               ; preds = %66
  store i1 false, ptr %4, align 1
  store i32 1, ptr %9, align 4
  br label %118

73:                                               ; preds = %66, %60
  call void @llvm.lifetime.start.p0(i64 1, ptr %10) #18
  %74 = load ptr, ptr %8, align 8, !tbaa !3
  %75 = call noundef i32 @_ZN10duckdb_re26Regexp11parse_flagsEv(ptr noundef nonnull align 8 dereferenceable(40) %74)
  %76 = call noundef i32 @_ZN10duckdb_re2anENS_6Regexp10ParseFlagsES1_(i32 noundef %75, i32 noundef 32)
  %77 = icmp ne i32 %76, 0
  %78 = zext i1 %77 to i8
  store i8 %78, ptr %10, align 1, !tbaa !77
  call void @llvm.lifetime.start.p0(i64 8, ptr %11) #18
  %79 = load ptr, ptr %8, align 8, !tbaa !3
  %80 = getelementptr inbounds nuw %"class.duckdb_re2::Regexp", ptr %79, i32 0, i32 0
  %81 = load i8, ptr %80, align 8, !tbaa !12
  %82 = zext i8 %81 to i32
  %83 = icmp eq i32 %82, 3
  br i1 %83, label %84, label %87

84:                                               ; preds = %73
  %85 = load ptr, ptr %8, align 8, !tbaa !3
  %86 = getelementptr inbounds nuw %"class.duckdb_re2::Regexp", ptr %85, i32 0, i32 7
  br label %92

87:                                               ; preds = %73
  %88 = load ptr, ptr %8, align 8, !tbaa !3
  %89 = getelementptr inbounds nuw %"class.duckdb_re2::Regexp", ptr %88, i32 0, i32 7
  %90 = getelementptr inbounds nuw %struct.anon.2, ptr %89, i32 0, i32 1
  %91 = load ptr, ptr %90, align 8, !tbaa !20
  br label %92

92:                                               ; preds = %87, %84
  %93 = phi ptr [ %86, %84 ], [ %91, %87 ]
  store ptr %93, ptr %11, align 8, !tbaa !74
  call void @llvm.lifetime.start.p0(i64 4, ptr %12) #18
  %94 = load ptr, ptr %8, align 8, !tbaa !3
  %95 = getelementptr inbounds nuw %"class.duckdb_re2::Regexp", ptr %94, i32 0, i32 0
  %96 = load i8, ptr %95, align 8, !tbaa !12
  %97 = zext i8 %96 to i32
  %98 = icmp eq i32 %97, 3
  br i1 %98, label %99, label %100

99:                                               ; preds = %92
  br label %105

100:                                              ; preds = %92
  %101 = load ptr, ptr %8, align 8, !tbaa !3
  %102 = getelementptr inbounds nuw %"class.duckdb_re2::Regexp", ptr %101, i32 0, i32 7
  %103 = getelementptr inbounds nuw %struct.anon.2, ptr %102, i32 0, i32 0
  %104 = load i32, ptr %103, align 8, !tbaa !20
  br label %105

105:                                              ; preds = %100, %99
  %106 = phi i32 [ 1, %99 ], [ %104, %100 ]
  store i32 %106, ptr %12, align 4, !tbaa !29
  %107 = load i8, ptr %10, align 1, !tbaa !77, !range !44, !noundef !45
  %108 = trunc i8 %107 to i1
  %109 = load ptr, ptr %11, align 8, !tbaa !74
  %110 = load i32, ptr %12, align 4, !tbaa !29
  %111 = load ptr, ptr %6, align 8, !tbaa !46
  call void @_ZN10duckdb_re219ConvertRunesToBytesEbPiiPNSt7__cxx1112basic_stringIcSt11char_traitsIcESaIcEEE(i1 noundef zeroext %108, ptr noundef %109, i32 noundef %110, ptr noundef %111)
  %112 = load ptr, ptr %8, align 8, !tbaa !3
  %113 = call noundef i32 @_ZN10duckdb_re26Regexp11parse_flagsEv(ptr noundef nonnull align 8 dereferenceable(40) %112)
  %114 = call noundef i32 @_ZN10duckdb_re2anENS_6Regexp10ParseFlagsES1_(i32 noundef %113, i32 noundef 1)
  %115 = icmp ne i32 %114, 0
  %116 = load ptr, ptr %7, align 8, !tbaa !138
  %117 = zext i1 %115 to i8
  store i8 %117, ptr %116, align 1, !tbaa !77
  store i1 true, ptr %4, align 1
  store i32 1, ptr %9, align 4
  call void @llvm.lifetime.end.p0(i64 4, ptr %12) #18
  call void @llvm.lifetime.end.p0(i64 8, ptr %11) #18
  call void @llvm.lifetime.end.p0(i64 1, ptr %10) #18
  br label %118

118:                                              ; preds = %105, %72
  call void @llvm.lifetime.end.p0(i64 8, ptr %8) #18
  %119 = load i1, ptr %4, align 1
  ret i1 %119
}