; Function Attrs: mustprogress uwtable
define hidden noundef zeroext i1 @_ZN10duckdb_re26Regexp22RequiredPrefixForAccelEPNSt7__cxx1112basic_stringIcSt11char_traitsIcESaIcEEEPb(ptr noundef nonnull align 8 dereferenceable(40) %0, ptr noundef initializes((8, 16)) %1, ptr noundef writeonly captures(none) initializes((0, 1)) %2) local_unnamed_addr #7 align 2 personality ptr @__gxx_personality_v0 {
  %4 = getelementptr inbounds nuw i8, ptr %1, i64 8
  store i64 0, ptr %4, align 8, !tbaa !31
  %5 = load ptr, ptr %1, align 8, !tbaa !30
  store i8 0, ptr %5, align 1, !tbaa !32
  store i8 0, ptr %2, align 1, !tbaa !110
  %6 = load i8, ptr %0, align 8, !tbaa !3
  %7 = icmp ne i8 %6, 5
  %8 = getelementptr inbounds nuw i8, ptr %0, i64 6
  %9 = load i16, ptr %8, align 2
  %.not = icmp eq i16 %9, 0
  %or.cond = select i1 %7, i1 true, i1 %.not
  br i1 %or.cond, label %.preheader, label %10

10:                                               ; preds = %3
  %11 = icmp ult i16 %9, 2
  br label %.sink.split

.sink.split:                                      ; preds = %10, %29
  %.sink41 = phi ptr [ %23, %29 ], [ %0, %10 ]
  %.sink = phi i1 [ %30, %29 ], [ %11, %10 ]
  %12 = getelementptr inbounds nuw i8, ptr %.sink41, i64 8
  %13 = load ptr, ptr %12, align 8
  %.0.i29 = select i1 %.sink, ptr %12, ptr %13
  %14 = load ptr, ptr %.0.i29, align 8, !tbaa !41
  br label %.preheader

.preheader:                                       ; preds = %3, %.sink.split
  %.022.ph = phi ptr [ %14, %.sink.split ], [ %0, %3 ]
  br label %15

15:                                               ; preds = %.backedge, %.preheader
  %.022 = phi ptr [ %.022.ph, %.preheader ], [ %23, %.backedge ]
  %16 = load i8, ptr %.022, align 8, !tbaa !3
  switch i8 %16, label %.loopexit [
    i8 11, label %17
    i8 3, label %31
    i8 4, label %31
  ]

17:                                               ; preds = %15
  %18 = getelementptr inbounds nuw i8, ptr %.022, i64 6
  %19 = load i16, ptr %18, align 2, !tbaa !13
  %20 = icmp ult i16 %19, 2
  %21 = getelementptr inbounds nuw i8, ptr %.022, i64 8
  %22 = load ptr, ptr %21, align 8
  %.0.i28 = select i1 %20, ptr %21, ptr %22
  %23 = load ptr, ptr %.0.i28, align 8, !tbaa !41
  %24 = load i8, ptr %23, align 8, !tbaa !3
  %25 = icmp eq i8 %24, 5
  br i1 %25, label %26, label %.backedge

26:                                               ; preds = %17
  %27 = getelementptr inbounds nuw i8, ptr %23, i64 6
  %28 = load i16, ptr %27, align 2, !tbaa !13
  %.not26 = icmp eq i16 %28, 0
  br i1 %.not26, label %.backedge, label %29

.backedge:                                        ; preds = %26, %17
  br label %15, !llvm.loop !113

29:                                               ; preds = %26
  %30 = icmp eq i16 %28, 1
  br label %.sink.split, !llvm.loop !113

31:                                               ; preds = %15, %15
  %32 = getelementptr inbounds nuw i8, ptr %.022, i64 2
  %33 = load i16, ptr %32, align 2, !tbaa !11
  %34 = and i16 %33, 32
  %35 = icmp ne i16 %34, 0
  %36 = icmp eq i8 %16, 3
  br i1 %36, label %.thread, label %38

.thread:                                          ; preds = %31
  %37 = getelementptr inbounds nuw i8, ptr %.022, i64 24
  br label %43

38:                                               ; preds = %31
  %39 = getelementptr inbounds nuw i8, ptr %.022, i64 32
  %40 = load ptr, ptr %39, align 8, !tbaa !32
  %41 = getelementptr inbounds nuw i8, ptr %.022, i64 24
  %42 = load i32, ptr %41, align 8, !tbaa !32
  br label %43

43:                                               ; preds = %.thread, %38
  %44 = phi ptr [ %40, %38 ], [ %37, %.thread ]
  %45 = phi i32 [ %42, %38 ], [ 1, %.thread ]
  tail call void @_ZN10duckdb_re219ConvertRunesToBytesEbPiiPNSt7__cxx1112basic_stringIcSt11char_traitsIcESaIcEEE(i1 noundef zeroext %35, ptr noundef %44, i32 noundef %45, ptr noundef nonnull %1)
  %46 = load i16, ptr %32, align 2, !tbaa !11
  %47 = trunc i16 %46 to i8
  %48 = and i8 %47, 1
  store i8 %48, ptr %2, align 1, !tbaa !110
  br label %.loopexit

.loopexit:                                        ; preds = %15, %43
  %.0 = phi i1 [ true, %43 ], [ false, %15 ]
  ret i1 %.0
}